	.file	"q2.cpp"
	.text
.Ltext0:
	.section	.text._ZNSt6thread11_State_implINS_8_InvokerISt5tupleIJPFviEiEEEEE6_M_runEv,"axG",@progbits,_ZNSt6thread11_State_implINS_8_InvokerISt5tupleIJPFviEiEEEEE6_M_runEv,comdat
	.align 2
	.p2align 4
	.weak	_ZNSt6thread11_State_implINS_8_InvokerISt5tupleIJPFviEiEEEEE6_M_runEv
	.type	_ZNSt6thread11_State_implINS_8_InvokerISt5tupleIJPFviEiEEEEE6_M_runEv, @function
_ZNSt6thread11_State_implINS_8_InvokerISt5tupleIJPFviEiEEEEE6_M_runEv:
.LVL0:
.LFB4634:
	.file 1 "/usr/include/c++/9/thread"
	.loc 1 195 2 view -0
	.cfi_startproc
	.loc 1 195 2 is_stmt 0 view .LVU1
	endbr64
.LVL1:
.LBB952:
.LBI952:
	.loc 1 247 2 is_stmt 1 view .LVU2
.LBB953:
.LBB954:
.LBI954:
	.loc 1 243 4 view .LVU3
.LBB955:
.LBB956:
.LBI956:
	.file 2 "/usr/include/c++/9/bits/invoke.h"
	.loc 2 89 5 view .LVU4
.LBB957:
.LBB958:
.LBI958:
	.loc 2 59 5 view .LVU5
.LBB959:
	.loc 2 60 36 is_stmt 0 view .LVU6
	movl	8(%rdi), %r8d
	movq	16(%rdi), %rax
	movl	%r8d, %edi
.LVL2:
	.loc 2 60 36 view .LVU7
	jmp	*%rax
.LVL3:
.LBE959:
.LBE958:
.LBE957:
.LBE956:
.LBE955:
.LBE954:
.LBE953:
.LBE952:
	.cfi_endproc
.LFE4634:
	.size	_ZNSt6thread11_State_implINS_8_InvokerISt5tupleIJPFviEiEEEEE6_M_runEv, .-_ZNSt6thread11_State_implINS_8_InvokerISt5tupleIJPFviEiEEEEE6_M_runEv
	.text
	.p2align 4
	.globl	_Z10threadFunci
	.type	_Z10threadFunci, @function
_Z10threadFunci:
.LFB3800:
	.file 3 "q2.cpp"
	.loc 3 31 26 is_stmt 1 view -0
	.cfi_startproc
.LVL4:
	.loc 3 31 26 is_stmt 0 view .LVU9
	endbr64
	.p2align 4,,10
	.p2align 3
.L4:
	.loc 3 33 5 is_stmt 1 view .LVU10
	.loc 3 33 12 view .LVU11
.LVL5:
.LBB960:
.LBI960:
	.file 4 "/usr/include/c++/9/atomic"
	.loc 4 87 5 view .LVU12
.LBE960:
	.loc 4 88 7 view .LVU13
.LBB963:
.LBB961:
.LBI961:
	.file 5 "/usr/include/c++/9/bits/atomic_base.h"
	.loc 5 413 7 view .LVU14
.LBB962:
	.loc 5 419 24 is_stmt 0 view .LVU15
	movq	g(%rip), %rax
	movzbl	68(%rax), %eax
.LVL6:
	.loc 5 419 24 view .LVU16
.LBE962:
.LBE961:
.LBE963:
	.loc 3 33 12 view .LVU17
	testb	%al, %al
	je	.L4
	.loc 3 36 5 is_stmt 1 view .LVU18
	.loc 3 36 27 is_stmt 0 view .LVU19
#APP
# 36 "q2.cpp" 1
	counter_code:

# 0 "" 2
#NO_APP
	movslq	%edi, %rdi
	.loc 3 36 27 view .LVU20
	salq	$6, %rdi
.LVL7:
	.loc 3 36 27 view .LVU21
	leaq	72(%rdi), %rdx
	.p2align 4,,10
	.p2align 3
.L5:
	.loc 3 37 5 is_stmt 1 view .LVU22
	.loc 3 38 9 view .LVU23
.LVL8:
.LBB964:
.LBI964:
	.loc 5 302 7 view .LVU24
.LBB965:
.LBI965:
	.loc 5 539 7 view .LVU25
.LBB966:
	.loc 5 541 34 is_stmt 0 view .LVU26
	movq	g(%rip), %rax
	lock addq	$1, (%rax,%rdx)
.LVL9:
	.loc 5 541 34 view .LVU27
.LBE966:
.LBE965:
.LBE964:
	.loc 3 39 9 is_stmt 1 view .LVU28
.LBB967:
.LBI967:
	.loc 4 87 5 view .LVU29
.LBE967:
	.loc 4 88 7 view .LVU30
.LBB970:
.LBB968:
.LBI968:
	.loc 5 413 7 view .LVU31
.LBB969:
	.loc 5 419 24 is_stmt 0 view .LVU32
	movq	g(%rip), %rax
	movzbl	69(%rax), %eax
.LVL10:
	.loc 5 419 24 view .LVU33
.LBE969:
.LBE968:
.LBE970:
	.loc 3 39 9 view .LVU34
	testb	%al, %al
	je	.L5
	.loc 3 41 1 view .LVU35
	ret
	.cfi_endproc
.LFE3800:
	.size	_Z10threadFunci, .-_Z10threadFunci
	.section	.text._ZNSt6thread11_State_implINS_8_InvokerISt5tupleIJPFviEiEEEEED2Ev,"axG",@progbits,_ZNSt6thread11_State_implINS_8_InvokerISt5tupleIJPFviEiEEEEED5Ev,comdat
	.align 2
	.p2align 4
	.weak	_ZNSt6thread11_State_implINS_8_InvokerISt5tupleIJPFviEiEEEEED2Ev
	.type	_ZNSt6thread11_State_implINS_8_InvokerISt5tupleIJPFviEiEEEEED2Ev, @function
_ZNSt6thread11_State_implINS_8_InvokerISt5tupleIJPFviEiEEEEED2Ev:
.LVL11:
.LFB4614:
	.loc 1 187 14 is_stmt 1 view -0
	.cfi_startproc
	.loc 1 187 14 is_stmt 0 view .LVU37
	endbr64
.LBB971:
	.loc 1 187 14 view .LVU38
	leaq	16+_ZTVNSt6thread11_State_implINS_8_InvokerISt5tupleIJPFviEiEEEEEE(%rip), %rax
	movq	%rax, (%rdi)
	jmp	_ZNSt6thread6_StateD2Ev@PLT
.LVL12:
	.loc 1 187 14 view .LVU39
.LBE971:
	.cfi_endproc
.LFE4614:
	.size	_ZNSt6thread11_State_implINS_8_InvokerISt5tupleIJPFviEiEEEEED2Ev, .-_ZNSt6thread11_State_implINS_8_InvokerISt5tupleIJPFviEiEEEEED2Ev
	.weak	_ZNSt6thread11_State_implINS_8_InvokerISt5tupleIJPFviEiEEEEED1Ev
	.set	_ZNSt6thread11_State_implINS_8_InvokerISt5tupleIJPFviEiEEEEED1Ev,_ZNSt6thread11_State_implINS_8_InvokerISt5tupleIJPFviEiEEEEED2Ev
	.section	.text._ZNSt6thread11_State_implINS_8_InvokerISt5tupleIJPFviEiEEEEED0Ev,"axG",@progbits,_ZNSt6thread11_State_implINS_8_InvokerISt5tupleIJPFviEiEEEEED5Ev,comdat
	.align 2
	.p2align 4
	.weak	_ZNSt6thread11_State_implINS_8_InvokerISt5tupleIJPFviEiEEEEED0Ev
	.type	_ZNSt6thread11_State_implINS_8_InvokerISt5tupleIJPFviEiEEEEED0Ev, @function
_ZNSt6thread11_State_implINS_8_InvokerISt5tupleIJPFviEiEEEEED0Ev:
.LVL13:
.LFB4616:
	.loc 1 187 14 is_stmt 1 view -0
	.cfi_startproc
	.loc 1 187 14 is_stmt 0 view .LVU41
	endbr64
.LVL14:
.LBB972:
.LBI972:
	.loc 1 187 14 is_stmt 1 view .LVU42
.LBB973:
	leaq	16+_ZTVNSt6thread11_State_implINS_8_InvokerISt5tupleIJPFviEiEEEEEE(%rip), %rax
.LBE973:
.LBE972:
	pushq	%rbp
	.cfi_def_cfa_offset 16
	.cfi_offset 6, -16
	.loc 1 187 14 is_stmt 0 view .LVU43
	movq	%rdi, %rbp
.LBB975:
.LBB974:
	movq	%rax, (%rdi)
	call	_ZNSt6thread6_StateD2Ev@PLT
.LVL15:
	.loc 1 187 14 view .LVU44
.LBE974:
.LBE975:
	movq	%rbp, %rdi
	movl	$24, %esi
	popq	%rbp
	.cfi_def_cfa_offset 8
.LVL16:
	.loc 1 187 14 view .LVU45
	jmp	_ZdlPvm@PLT
.LVL17:
	.loc 1 187 14 view .LVU46
	.cfi_endproc
.LFE4616:
	.size	_ZNSt6thread11_State_implINS_8_InvokerISt5tupleIJPFviEiEEEEED0Ev, .-_ZNSt6thread11_State_implINS_8_InvokerISt5tupleIJPFviEiEEEEED0Ev
	.section	.rodata._ZNSt6vectorIPSt6threadSaIS1_EE17_M_realloc_insertIJS1_EEEvN9__gnu_cxx17__normal_iteratorIPS1_S3_EEDpOT_.str1.1,"aMS",@progbits,1
.LC0:
	.string	"vector::_M_realloc_insert"
	.section	.text._ZNSt6vectorIPSt6threadSaIS1_EE17_M_realloc_insertIJS1_EEEvN9__gnu_cxx17__normal_iteratorIPS1_S3_EEDpOT_,"axG",@progbits,_ZNSt6vectorIPSt6threadSaIS1_EE17_M_realloc_insertIJS1_EEEvN9__gnu_cxx17__normal_iteratorIPS1_S3_EEDpOT_,comdat
	.align 2
	.p2align 4
	.weak	_ZNSt6vectorIPSt6threadSaIS1_EE17_M_realloc_insertIJS1_EEEvN9__gnu_cxx17__normal_iteratorIPS1_S3_EEDpOT_
	.type	_ZNSt6vectorIPSt6threadSaIS1_EE17_M_realloc_insertIJS1_EEEvN9__gnu_cxx17__normal_iteratorIPS1_S3_EEDpOT_, @function
_ZNSt6vectorIPSt6threadSaIS1_EE17_M_realloc_insertIJS1_EEEvN9__gnu_cxx17__normal_iteratorIPS1_S3_EEDpOT_:
.LVL18:
.LFB4411:
	.file 6 "/usr/include/c++/9/bits/vector.tcc"
	.loc 6 426 7 is_stmt 1 view -0
	.cfi_startproc
	.loc 6 426 7 is_stmt 0 view .LVU48
	endbr64
.LVL19:
.LBB1012:
.LBI1012:
	.file 7 "/usr/include/c++/9/bits/stl_vector.h"
	.loc 7 1753 7 is_stmt 1 view .LVU49
.LBB1013:
	.loc 7 1755 2 is_stmt 0 view .LVU50
	movabsq	$1152921504606846975, %rcx
.LBE1013:
.LBE1012:
	.loc 6 426 7 view .LVU51
	pushq	%r15
	.cfi_def_cfa_offset 16
	.cfi_offset 15, -16
	pushq	%r14
	.cfi_def_cfa_offset 24
	.cfi_offset 14, -24
	pushq	%r13
	.cfi_def_cfa_offset 32
	.cfi_offset 13, -32
	pushq	%r12
	.cfi_def_cfa_offset 40
	.cfi_offset 12, -40
	pushq	%rbp
	.cfi_def_cfa_offset 48
	.cfi_offset 6, -48
	pushq	%rbx
	.cfi_def_cfa_offset 56
	.cfi_offset 3, -56
	subq	$24, %rsp
	.cfi_def_cfa_offset 80
.LBB1022:
.LBB1020:
	.loc 7 1755 17 view .LVU52
	movq	8(%rdi), %r12
	movq	(%rdi), %r8
.LBB1014:
.LBI1014:
	.loc 7 915 7 is_stmt 1 view .LVU53
.LVL20:
.LBB1015:
	.loc 7 916 50 is_stmt 0 view .LVU54
	movq	%r12, %rax
	subq	%r8, %rax
	sarq	$3, %rax
.LBE1015:
.LBE1014:
	.loc 7 1755 2 view .LVU55
	cmpq	%rcx, %rax
	je	.L27
	movq	%rdx, %r15
.LVL21:
	.loc 7 1755 2 view .LVU56
	movq	%rsi, %rdx
.LVL22:
	.loc 7 1755 2 view .LVU57
	movq	%rdi, %rbp
.LVL23:
.LBB1016:
.LBI1016:
	.file 8 "/usr/include/c++/9/bits/stl_algobase.h"
	.loc 8 222 5 is_stmt 1 view .LVU58
	movq	%rsi, %r13
.LVL24:
	.loc 8 222 5 is_stmt 0 view .LVU59
	subq	%r8, %rdx
.LBB1017:
	.loc 8 227 7 view .LVU60
	testq	%rax, %rax
	je	.L23
.LVL25:
	.loc 8 227 7 view .LVU61
.LBE1017:
.LBE1016:
	movabsq	$9223372036854775800, %r14
	.loc 7 1758 18 view .LVU62
	leaq	(%rax,%rax), %rsi
.LVL26:
	.loc 7 1759 48 view .LVU63
	cmpq	%rsi, %rax
	jbe	.L28
.LVL27:
.L15:
	.loc 7 1759 48 view .LVU64
.LBE1020:
.LBE1022:
.LBB1023:
.LBB1024:
.LBB1025:
.LBB1026:
.LBB1027:
	.file 9 "/usr/include/c++/9/ext/new_allocator.h"
	.loc 9 114 41 view .LVU65
	movq	%r14, %rdi
.LVL28:
	.loc 9 114 41 view .LVU66
	movq	%rdx, 8(%rsp)
	movq	%r8, (%rsp)
.LBE1027:
.LBE1026:
.LBI1025:
	.file 10 "/usr/include/c++/9/bits/alloc_traits.h"
	.loc 10 442 7 is_stmt 1 view .LVU67
.LVL29:
.LBB1030:
.LBI1026:
	.loc 9 102 7 view .LVU68
.LBB1028:
	.loc 9 114 41 is_stmt 0 view .LVU69
	call	_Znwm@PLT
.LVL30:
.LBE1028:
.LBE1030:
.LBE1025:
	movq	(%rsp), %r8
	movq	8(%rsp), %rdx
.LBB1032:
.LBB1031:
.LBB1029:
	movq	%rax, %rbx
	addq	%rax, %r14
.LVL31:
.L22:
	.loc 9 114 41 view .LVU70
.LBE1029:
.LBE1031:
.LBE1032:
.LBE1024:
.LBE1023:
.LBB1034:
.LBI1034:
	.loc 10 481 2 is_stmt 1 view .LVU71
.LBB1035:
.LBI1035:
	.loc 9 144 2 view .LVU72
	.loc 9 144 2 is_stmt 0 view .LVU73
.LBE1035:
.LBE1034:
	.file 11 "/usr/include/c++/9/new"
	.loc 11 174 3 is_stmt 1 view .LVU74
.LBB1038:
.LBB1037:
.LBB1036:
	.loc 11 174 3 is_stmt 0 view .LVU75
	movq	(%r15), %rax
	subq	%r13, %r12
	leaq	8(%rbx,%rdx), %r15
.LVL32:
	.loc 11 174 3 view .LVU76
	movq	%rax, (%rbx,%rdx)
.LVL33:
	.loc 11 174 3 view .LVU77
.LBE1036:
.LBE1037:
.LBE1038:
.LBB1039:
.LBI1039:
	.loc 7 462 7 is_stmt 1 view .LVU78
.LBB1040:
.LBB1041:
.LBI1041:
	.loc 7 450 7 view .LVU79
.LBB1042:
.LBI1042:
	.file 12 "/usr/include/c++/9/bits/stl_uninitialized.h"
	.loc 12 958 5 view .LVU80
.LBB1043:
.LBI1043:
	.loc 12 924 5 view .LVU81
	.loc 12 924 5 is_stmt 0 view .LVU82
	leaq	(%r15,%r12), %rax
	movq	%rax, (%rsp)
.LBB1044:
	.loc 12 928 7 view .LVU83
	testq	%rdx, %rdx
	jg	.L29
.LVL34:
	.loc 12 928 7 view .LVU84
.LBE1044:
.LBE1043:
.LBE1042:
.LBE1041:
.LBE1040:
.LBE1039:
.LBB1050:
.LBI1050:
	.loc 7 462 7 is_stmt 1 view .LVU85
.LBB1051:
.LBB1052:
.LBI1052:
	.loc 7 450 7 view .LVU86
.LBB1053:
.LBI1053:
	.loc 12 958 5 view .LVU87
.LBB1054:
.LBI1054:
	.loc 12 924 5 view .LVU88
.LBB1055:
	.loc 12 928 7 is_stmt 0 view .LVU89
	testq	%r12, %r12
	jg	.L18
.LVL35:
	.loc 12 928 7 view .LVU90
.LBE1055:
.LBE1054:
.LBE1053:
.LBE1052:
.LBE1051:
.LBE1050:
.LBB1066:
.LBI1066:
	.loc 7 347 7 is_stmt 1 view .LVU91
.LBB1067:
	.loc 7 350 2 is_stmt 0 view .LVU92
	testq	%r8, %r8
	jne	.L21
.LVL36:
.L19:
	.loc 7 350 2 view .LVU93
.LBE1067:
.LBE1066:
	.loc 6 502 7 view .LVU94
	movq	%rbx, %xmm0
	.loc 6 504 7 view .LVU95
	movq	%r14, 16(%rbp)
	.loc 6 502 7 view .LVU96
	movhps	(%rsp), %xmm0
	movups	%xmm0, 0(%rbp)
	.loc 6 505 5 view .LVU97
	addq	$24, %rsp
	.cfi_remember_state
	.cfi_def_cfa_offset 56
	popq	%rbx
	.cfi_def_cfa_offset 48
.LVL37:
	.loc 6 505 5 view .LVU98
	popq	%rbp
	.cfi_def_cfa_offset 40
.LVL38:
	.loc 6 505 5 view .LVU99
	popq	%r12
	.cfi_def_cfa_offset 32
	popq	%r13
	.cfi_def_cfa_offset 24
.LVL39:
	.loc 6 505 5 view .LVU100
	popq	%r14
	.cfi_def_cfa_offset 16
	popq	%r15
	.cfi_def_cfa_offset 8
	ret
.LVL40:
	.p2align 4,,10
	.p2align 3
.L29:
	.cfi_restore_state
.LBB1074:
.LBB1049:
.LBB1048:
.LBB1047:
.LBB1046:
.LBB1045:
	.loc 12 929 19 view .LVU101
	movq	%r8, %rsi
	movq	%rbx, %rdi
	movq	%r8, 8(%rsp)
	call	memmove@PLT
.LVL41:
	.loc 12 929 19 view .LVU102
.LBE1045:
.LBE1046:
.LBE1047:
.LBE1048:
.LBE1049:
.LBE1074:
.LBB1075:
	.loc 7 462 7 is_stmt 1 view .LVU103
.LBB1064:
.LBB1062:
	.loc 7 450 7 view .LVU104
.LBB1060:
	.loc 12 958 5 view .LVU105
.LBB1058:
	.loc 12 924 5 view .LVU106
.LBB1056:
	.loc 12 928 7 is_stmt 0 view .LVU107
	testq	%r12, %r12
	movq	8(%rsp), %r8
	jg	.L18
.LVL42:
.L21:
	.loc 12 928 7 view .LVU108
.LBE1056:
.LBE1058:
.LBE1060:
.LBE1062:
.LBE1064:
.LBE1075:
.LBB1076:
.LBB1072:
.LBB1068:
.LBI1068:
	.loc 10 468 7 is_stmt 1 view .LVU109
.LBB1069:
.LBB1070:
.LBI1070:
	.loc 9 119 7 view .LVU110
.LBB1071:
	.loc 9 128 19 is_stmt 0 view .LVU111
	movq	%r8, %rdi
	call	_ZdlPv@PLT
.LVL43:
	.loc 9 128 19 view .LVU112
.LBE1071:
.LBE1070:
	.loc 10 469 35 view .LVU113
	jmp	.L19
.LVL44:
	.p2align 4,,10
	.p2align 3
.L28:
	.loc 10 469 35 view .LVU114
.LBE1069:
.LBE1068:
.LBE1072:
.LBE1076:
.LBB1077:
.LBI1077:
	.loc 7 808 7 is_stmt 1 view .LVU115
.LBB1078:
.LBI1078:
	.file 13 "/usr/include/c++/9/bits/stl_iterator.h"
	.loc 13 803 7 view .LVU116
	.loc 13 803 7 is_stmt 0 view .LVU117
.LBE1078:
.LBE1077:
.LBB1079:
.LBI1023:
	.loc 7 340 7 is_stmt 1 view .LVU118
.LBB1033:
	.loc 7 343 18 is_stmt 0 view .LVU119
	testq	%rsi, %rsi
	jne	.L16
	xorl	%r14d, %r14d
	xorl	%ebx, %ebx
	jmp	.L22
.LVL45:
	.p2align 4,,10
	.p2align 3
.L18:
	.loc 7 343 18 view .LVU120
.LBE1033:
.LBE1079:
.LBB1080:
.LBB1065:
.LBB1063:
.LBB1061:
.LBB1059:
.LBB1057:
	.loc 12 929 19 view .LVU121
	movq	%r12, %rdx
	movq	%r13, %rsi
	movq	%r15, %rdi
	movq	%r8, 8(%rsp)
	call	memcpy@PLT
.LVL46:
	movq	8(%rsp), %r8
.LVL47:
	.loc 12 929 19 view .LVU122
.LBE1057:
.LBE1059:
.LBE1061:
.LBE1063:
.LBE1065:
.LBE1080:
.LBB1081:
	.loc 7 347 7 is_stmt 1 view .LVU123
.LBB1073:
	.loc 7 350 2 is_stmt 0 view .LVU124
	testq	%r8, %r8
	je	.L19
	jmp	.L21
.LVL48:
	.p2align 4,,10
	.p2align 3
.L23:
	.loc 7 350 2 view .LVU125
.LBE1073:
.LBE1081:
.LBB1082:
.LBB1021:
.LBB1019:
.LBB1018:
	movl	$8, %r14d
	jmp	.L15
.LVL49:
.L27:
	.loc 7 350 2 view .LVU126
.LBE1018:
.LBE1019:
	.loc 7 1756 24 view .LVU127
	leaq	.LC0(%rip), %rdi
.LVL50:
	.loc 7 1756 24 view .LVU128
	call	_ZSt20__throw_length_errorPKc@PLT
.LVL51:
.L16:
	.loc 7 1756 24 view .LVU129
	cmpq	%rcx, %rsi
	cmovbe	%rsi, %rcx
	movq	%rcx, %r14
	salq	$3, %r14
	jmp	.L15
.LBE1021:
.LBE1082:
	.cfi_endproc
.LFE4411:
	.size	_ZNSt6vectorIPSt6threadSaIS1_EE17_M_realloc_insertIJS1_EEEvN9__gnu_cxx17__normal_iteratorIPS1_S3_EEDpOT_, .-_ZNSt6vectorIPSt6threadSaIS1_EE17_M_realloc_insertIJS1_EEEvN9__gnu_cxx17__normal_iteratorIPS1_S3_EEDpOT_
	.section	.rodata.str1.1,"aMS",@progbits,1
.LC1:
	.string	"USAGE: "
	.section	.rodata.str1.8,"aMS",@progbits,1
	.align 8
.LC2:
	.string	" SECONDS_TO_RUN NUMBER_OF_THREADS"
	.align 8
.LC3:
	.string	"throughput (increments per second)="
	.section	.text.unlikely,"ax",@progbits
.LCOLDB4:
	.section	.text.startup,"ax",@progbits
.LHOTB4:
	.p2align 4
	.section	.text.unlikely
.Ltext_cold0:
	.section	.text.startup
	.globl	main
	.type	main, @function
main:
.LVL52:
.LFB3801:
	.loc 3 43 34 is_stmt 1 view -0
	.cfi_startproc
	.cfi_personality 0x9b,DW.ref.__gxx_personality_v0
	.cfi_lsda 0x1b,.LLSDA3801
	.loc 3 43 34 is_stmt 0 view .LVU131
	endbr64
	pushq	%r15
	.cfi_def_cfa_offset 16
	.cfi_offset 15, -16
	pushq	%r14
	.cfi_def_cfa_offset 24
	.cfi_offset 14, -24
	pushq	%r13
	.cfi_def_cfa_offset 32
	.cfi_offset 13, -32
	pushq	%r12
	.cfi_def_cfa_offset 40
	.cfi_offset 12, -40
	pushq	%rbp
	.cfi_def_cfa_offset 48
	.cfi_offset 6, -48
	pushq	%rbx
	.cfi_def_cfa_offset 56
	.cfi_offset 3, -56
	movq	%rsi, %rbx
	subq	$72, %rsp
	.cfi_def_cfa_offset 128
	.loc 3 43 34 view .LVU132
	movq	%fs:40, %rax
	movq	%rax, 56(%rsp)
	xorl	%eax, %eax
	.loc 3 45 5 is_stmt 1 view .LVU133
	cmpl	$3, %edi
	je	.L31
	.loc 3 46 9 view .LVU134
.LVL53:
.LBB1276:
.LBI1276:
	.file 14 "/usr/include/c++/9/ostream"
	.loc 14 565 5 view .LVU135
	.loc 14 565 5 is_stmt 0 view .LVU136
.LBE1276:
	.file 15 "/usr/include/c++/9/bits/char_traits.h"
	.loc 15 339 2 is_stmt 1 view .LVU137
	.loc 15 342 2 view .LVU138
.LBB1279:
.LBB1277:
	.loc 14 570 18 is_stmt 0 view .LVU139
	movl	$7, %edx
	leaq	.LC1(%rip), %rsi
.LVL54:
	.loc 14 570 18 view .LVU140
	leaq	_ZSt4cout(%rip), %rdi
.LVL55:
	.loc 14 570 18 view .LVU141
.LBE1277:
.LBE1279:
	.loc 3 47 16 view .LVU142
	movl	$1, %r12d
.LEHB0:
.LBB1280:
.LBB1278:
	.loc 14 570 18 view .LVU143
	call	_ZSt16__ostream_insertIcSt11char_traitsIcEERSt13basic_ostreamIT_T0_ES6_PKS3_l@PLT
.LVL56:
	.loc 14 570 18 view .LVU144
.LBE1278:
.LBE1280:
	.loc 3 46 35 view .LVU145
	movq	(%rbx), %rsi
	leaq	_ZSt4cout(%rip), %rdi
	call	_ZStlsISt11char_traitsIcEERSt13basic_ostreamIcT_ES5_PKc@PLT
.LVL57:
.LBB1281:
.LBB1282:
	.loc 14 570 18 view .LVU146
	movl	$33, %edx
	leaq	.LC2(%rip), %rsi
.LBE1282:
.LBE1281:
	.loc 3 46 35 view .LVU147
	movq	%rax, %rbp
.LVL58:
.LBB1284:
.LBI1281:
	.loc 14 565 5 is_stmt 1 view .LVU148
	.loc 14 565 5 is_stmt 0 view .LVU149
.LBE1284:
	.loc 15 339 2 is_stmt 1 view .LVU150
	.loc 15 342 2 view .LVU151
.LBB1285:
.LBB1283:
	.loc 14 570 18 is_stmt 0 view .LVU152
	movq	%rax, %rdi
	call	_ZSt16__ostream_insertIcSt11char_traitsIcEERSt13basic_ostreamIT_T0_ES6_PKS3_l@PLT
.LVL59:
	.loc 14 570 18 view .LVU153
.LBE1283:
.LBE1285:
.LBB1286:
.LBI1286:
	.loc 14 108 7 is_stmt 1 view .LVU154
.LBB1287:
	.loc 14 113 13 is_stmt 0 view .LVU155
	movq	%rbp, %rdi
	call	_ZSt4endlIcSt11char_traitsIcEERSt13basic_ostreamIT_T0_ES6_@PLT
.LVL60:
	.loc 14 113 13 view .LVU156
.LBE1287:
.LBE1286:
	.loc 3 47 9 is_stmt 1 view .LVU157
.L30:
	.loc 3 81 1 is_stmt 0 view .LVU158
	movq	56(%rsp), %rax
	xorq	%fs:40, %rax
	jne	.L81
	addq	$72, %rsp
	.cfi_remember_state
	.cfi_def_cfa_offset 56
	movl	%r12d, %eax
	popq	%rbx
	.cfi_def_cfa_offset 48
	popq	%rbp
	.cfi_def_cfa_offset 40
	popq	%r12
	.cfi_def_cfa_offset 32
	popq	%r13
	.cfi_def_cfa_offset 24
	popq	%r14
	.cfi_def_cfa_offset 16
	popq	%r15
	.cfi_def_cfa_offset 8
	ret
.LVL61:
.L31:
	.cfi_restore_state
	.loc 3 49 5 is_stmt 1 view .LVU159
.LBB1288:
.LBI1288:
	.file 16 "/usr/include/stdlib.h"
	.loc 16 362 1 view .LVU160
.LBB1289:
	.loc 16 364 3 view .LVU161
	.loc 16 364 23 is_stmt 0 view .LVU162
	movq	8(%rsi), %rdi
.LVL62:
	.loc 16 364 23 view .LVU163
	movl	$10, %edx
	xorl	%esi, %esi
	call	strtol@PLT
.LVL63:
	.loc 16 364 23 view .LVU164
.LBE1289:
.LBE1288:
.LBB1291:
.LBB1292:
	movq	16(%rbx), %rdi
	xorl	%esi, %esi
	movl	$10, %edx
.LBE1292:
.LBE1291:
.LBB1296:
.LBB1290:
	movq	%rax, 8(%rsp)
.LVL64:
	.loc 16 364 23 view .LVU165
.LBE1290:
.LBE1296:
	.loc 3 50 5 is_stmt 1 view .LVU166
.LBB1297:
.LBI1291:
	.loc 16 362 1 view .LVU167
.LBB1293:
	.loc 16 364 3 view .LVU168
	.loc 16 364 23 is_stmt 0 view .LVU169
	call	strtol@PLT
.LVL65:
	.loc 16 364 23 view .LVU170
.LBE1293:
.LBE1297:
	.loc 3 53 31 view .LVU171
	movl	$16456, %edi
.LBB1298:
.LBB1294:
	.loc 16 364 23 view .LVU172
	movq	%rax, %rbx
.LVL66:
	.loc 16 364 23 view .LVU173
.LBE1294:
.LBE1298:
	.loc 3 53 5 is_stmt 1 view .LVU174
	.loc 3 53 31 is_stmt 0 view .LVU175
	call	_Znwm@PLT
.LVL67:
.LEHE0:
.LBB1299:
.LBI1299:
	.loc 3 22 5 is_stmt 1 view .LVU176
.LBB1300:
	.loc 3 22 30 view .LVU177
	.loc 3 23 9 view .LVU178
.LBE1300:
.LBE1299:
.LBB1314:
.LBB1315:
.LBB1316:
.LBB1317:
.LBB1318:
.LBB1319:
	.loc 7 95 47 is_stmt 0 view .LVU179
	pxor	%xmm0, %xmm0
.LBE1319:
.LBE1318:
.LBE1317:
.LBE1316:
.LBE1315:
.LBE1314:
.LBB1332:
.LBB1295:
	.loc 16 364 50 view .LVU180
	movl	%ebx, 64(%rax)
.LBE1295:
.LBE1332:
.LBB1333:
.LBB1311:
	.loc 3 24 9 is_stmt 1 view .LVU181
.LVL68:
.LBB1301:
.LBI1301:
	.loc 4 80 5 view .LVU182
.LBE1301:
.LBE1311:
.LBE1333:
	.loc 4 81 7 view .LVU183
.LBB1334:
.LBB1312:
.LBB1305:
.LBB1302:
.LBI1302:
	.loc 5 288 7 view .LVU184
.LBB1303:
.LBI1303:
	.loc 5 390 7 view .LVU185
.LBB1304:
	.loc 5 397 18 is_stmt 0 view .LVU186
	movb	$0, 68(%rax)
.LVL69:
	.loc 5 397 18 view .LVU187
	mfence
.LVL70:
	.loc 5 397 18 view .LVU188
.LBE1304:
.LBE1303:
.LBE1302:
.LBE1305:
	.loc 3 25 9 is_stmt 1 view .LVU189
.LBB1306:
.LBI1306:
	.loc 4 80 5 view .LVU190
.LBE1306:
.LBE1312:
.LBE1334:
	.loc 4 81 7 view .LVU191
.LBB1335:
.LBB1313:
.LBB1310:
.LBB1307:
.LBI1307:
	.loc 5 288 7 view .LVU192
.LBB1308:
.LBI1308:
	.loc 5 390 7 view .LVU193
.LBB1309:
	.loc 5 397 18 is_stmt 0 view .LVU194
	movb	$0, 69(%rax)
	mfence
.LVL71:
	.loc 5 397 18 view .LVU195
.LBE1309:
.LBE1308:
.LBE1307:
.LBE1310:
.LBE1313:
.LBE1335:
	.loc 3 53 7 view .LVU196
	movq	%rax, g(%rip)
	.loc 3 56 5 is_stmt 1 view .LVU197
.LVL72:
.LBB1336:
.LBI1314:
	.loc 7 484 7 view .LVU198
.LBB1330:
.LBI1315:
	.loc 7 285 7 view .LVU199
.LBB1328:
.LBI1316:
	.loc 7 128 2 view .LVU200
.LBB1324:
.LBI1324:
	.file 17 "/usr/include/c++/9/bits/allocator.h"
	.loc 17 137 7 view .LVU201
.LBB1325:
.LBI1325:
	.loc 9 80 7 view .LVU202
	.loc 9 80 7 is_stmt 0 view .LVU203
.LBE1325:
.LBE1324:
.LBB1326:
.LBI1317:
	.loc 7 94 2 is_stmt 1 view .LVU204
.LBB1322:
.LBB1320:
	.loc 7 95 47 is_stmt 0 view .LVU205
	movq	$0, 48(%rsp)
.LVL73:
	.loc 7 95 47 view .LVU206
.LBE1320:
.LBE1322:
.LBE1326:
.LBE1328:
.LBE1330:
.LBE1336:
	.loc 3 57 5 is_stmt 1 view .LVU207
.LBB1337:
	.loc 3 57 19 view .LVU208
	cmpl	$0, 64(%rax)
.LBE1337:
.LBB1463:
.LBB1331:
.LBB1329:
.LBB1327:
.LBB1323:
.LBB1321:
	.loc 7 95 47 is_stmt 0 view .LVU209
	movaps	%xmm0, 32(%rsp)
.LBE1321:
.LBE1323:
.LBE1327:
.LBE1329:
.LBE1331:
.LBE1463:
.LBB1464:
	.loc 3 57 19 view .LVU210
	jle	.L33
	.loc 3 57 14 view .LVU211
	xorl	%ebx, %ebx
.LVL74:
.LBB1338:
.LBB1339:
	.loc 1 130 9 view .LVU212
	leaq	16(%rsp), %r12
.LBE1339:
.LBE1338:
.LBB1427:
.LBB1428:
.LBB1429:
	.loc 6 121 4 view .LVU213
	leaq	32(%rsp), %r15
.LBE1429:
.LBE1428:
.LBE1427:
.LBB1455:
.LBB1420:
.LBB1340:
.LBB1341:
.LBB1342:
.LBB1343:
	.loc 1 191 69 view .LVU214
	leaq	16+_ZTVNSt6thread11_State_implINS_8_InvokerISt5tupleIJPFviEiEEEEEE(%rip), %r13
.LBB1344:
.LBB1345:
.LBB1346:
.LBB1347:
.LBB1348:
	.file 18 "/usr/include/c++/9/tuple"
	.loc 18 133 42 view .LVU215
	leaq	_Z10threadFunci(%rip), %r14
	jmp	.L41
.LVL75:
	.p2align 4,,10
	.p2align 3
.L35:
	.loc 18 133 42 view .LVU216
.LBE1348:
.LBE1347:
.LBE1346:
.LBE1345:
.LBE1344:
.LBE1343:
.LBE1342:
.LBE1341:
.LBE1340:
.LBE1420:
.LBE1455:
.LBB1456:
.LBB1451:
.LBB1447:
.LBB1430:
.LBI1430:
	.loc 10 481 2 is_stmt 1 view .LVU217
.LBB1431:
.LBI1431:
	.loc 9 144 2 view .LVU218
	.loc 9 144 2 is_stmt 0 view .LVU219
.LBE1431:
.LBE1430:
.LBE1447:
.LBE1451:
.LBE1456:
.LBE1464:
	.loc 11 174 3 is_stmt 1 view .LVU220
.LBB1465:
	.loc 3 57 23 is_stmt 0 view .LVU221
	movq	g(%rip), %rax
.LBB1457:
.LBB1452:
.LBB1448:
.LBB1434:
.LBB1433:
.LBB1432:
	movq	%rbp, (%rsi)
.LVL76:
	.loc 3 57 23 view .LVU222
.LBE1432:
.LBE1433:
.LBE1434:
	.loc 6 117 6 view .LVU223
	addq	$8, %rsi
.LBE1448:
.LBE1452:
.LBE1457:
	.loc 3 57 5 view .LVU224
	addl	$1, %ebx
.LVL77:
.LBB1458:
.LBB1453:
.LBB1449:
	.loc 6 117 6 view .LVU225
	movq	%rsi, 40(%rsp)
.LVL78:
.LBB1435:
.LBI1435:
	.loc 7 1140 7 is_stmt 1 view .LVU226
.LBB1436:
.LBI1436:
	.loc 7 826 7 view .LVU227
.LBB1437:
.LBI1437:
	.loc 13 803 7 view .LVU228
	.loc 13 803 7 is_stmt 0 view .LVU229
.LBE1437:
.LBE1436:
.LBB1439:
.LBI1439:
	.loc 13 864 7 is_stmt 1 view .LVU230
.LBB1440:
.LBI1440:
	.loc 13 803 7 view .LVU231
	.loc 13 803 7 is_stmt 0 view .LVU232
.LBE1440:
.LBE1439:
.LBE1435:
.LBE1449:
.LBE1453:
.LBE1458:
	.loc 3 57 5 is_stmt 1 view .LVU233
	.loc 3 57 19 view .LVU234
	cmpl	%ebx, 64(%rax)
	jle	.L33
.LVL79:
.L41:
	.loc 3 58 9 view .LVU235
	.loc 3 58 51 is_stmt 0 view .LVU236
	movl	$8, %edi
.LEHB1:
	call	_Znwm@PLT
.LVL80:
.LEHE1:
.LBB1459:
.LBB1421:
.LBB1422:
	.loc 1 82 33 view .LVU237
	movq	$0, (%rax)
.LBE1422:
.LBE1421:
.LBB1423:
.LBB1389:
.LBB1386:
	.loc 1 206 20 view .LVU238
	movl	$24, %edi
.LBE1386:
.LBE1389:
.LBE1423:
.LBE1459:
	.loc 3 58 51 view .LVU239
	movq	%rax, %rbp
.LVL81:
.LBB1460:
.LBI1338:
	.loc 1 117 7 is_stmt 1 view .LVU240
.LBB1424:
.LBI1421:
	.loc 1 82 7 view .LVU241
	.loc 1 82 7 is_stmt 0 view .LVU242
.LBE1424:
.LBB1425:
.LBB1390:
.LBI1390:
	.file 19 "/usr/include/c++/9/bits/move.h"
	.loc 19 74 5 is_stmt 1 view .LVU243
	.loc 19 74 5 is_stmt 0 view .LVU244
.LBE1390:
.LBB1391:
.LBI1391:
	.loc 19 74 5 is_stmt 1 view .LVU245
	.loc 19 74 5 is_stmt 0 view .LVU246
.LBE1391:
.LBB1392:
.LBI1392:
	.loc 1 263 7 is_stmt 1 view .LVU247
.LBB1393:
.LBI1393:
	.loc 18 968 19 view .LVU248
.LBB1394:
.LBI1394:
	.loc 19 74 5 view .LVU249
	.loc 19 74 5 is_stmt 0 view .LVU250
.LBE1394:
.LBB1395:
.LBI1395:
	.loc 19 74 5 is_stmt 1 view .LVU251
	.loc 19 74 5 is_stmt 0 view .LVU252
.LBE1395:
.LBB1396:
.LBI1396:
	.loc 18 216 19 is_stmt 1 view .LVU253
.LBB1397:
.LBI1397:
	.loc 19 74 5 view .LVU254
	.loc 19 74 5 is_stmt 0 view .LVU255
.LBE1397:
.LBB1398:
.LBI1398:
	.loc 18 348 19 is_stmt 1 view .LVU256
.LBB1399:
.LBI1399:
	.loc 19 74 5 view .LVU257
	.loc 19 74 5 is_stmt 0 view .LVU258
.LBE1399:
.LBB1400:
.LBI1400:
	.loc 18 132 19 is_stmt 1 view .LVU259
.LBB1401:
.LBI1401:
	.loc 19 74 5 view .LVU260
	.loc 19 74 5 is_stmt 0 view .LVU261
.LBE1401:
.LBE1400:
.LBE1398:
.LBB1402:
.LBI1402:
	.loc 19 74 5 is_stmt 1 view .LVU262
	.loc 19 74 5 is_stmt 0 view .LVU263
.LBE1402:
.LBB1403:
.LBI1403:
	.loc 18 125 17 is_stmt 1 view .LVU264
	.loc 18 125 17 is_stmt 0 view .LVU265
.LBE1403:
.LBE1396:
.LBE1393:
.LBE1392:
.LBB1404:
.LBI1340:
	.loc 1 203 7 is_stmt 1 view .LVU266
.LEHB2:
.LBB1387:
	.loc 1 206 20 is_stmt 0 view .LVU267
	call	_Znwm@PLT
.LVL82:
.LEHE2:
.LBB1375:
.LBI1342:
	.loc 1 191 2 is_stmt 1 view .LVU268
.LBB1373:
.LBB1369:
.LBI1369:
	.loc 1 67 12 view .LVU269
	.loc 1 67 12 is_stmt 0 view .LVU270
.LBE1369:
	.loc 1 191 69 view .LVU271
	movq	%r13, (%rax)
.LBB1370:
.LBI1370:
	.loc 19 74 5 is_stmt 1 view .LVU272
.LVL83:
	.loc 19 74 5 is_stmt 0 view .LVU273
.LBE1370:
.LBB1371:
.LBI1344:
	.loc 1 230 14 is_stmt 1 view .LVU274
.LBB1367:
.LBI1345:
	.loc 18 983 17 view .LVU275
.LBB1365:
.LBI1346:
	.loc 18 227 7 view .LVU276
.LBB1351:
.LBI1351:
	.loc 18 201 7 view .LVU277
	.loc 18 201 7 is_stmt 0 view .LVU278
.LBE1351:
.LBB1352:
.LBI1352:
	.loc 19 99 5 is_stmt 1 view .LVU279
	.loc 19 99 5 is_stmt 0 view .LVU280
.LBE1352:
.LBB1353:
.LBI1353:
	.loc 18 358 7 is_stmt 1 view .LVU281
.LBB1354:
.LBI1354:
	.loc 18 334 7 view .LVU282
	.loc 18 334 7 is_stmt 0 view .LVU283
.LBE1354:
.LBB1355:
.LBI1355:
	.loc 19 74 5 is_stmt 1 view .LVU284
	.loc 19 74 5 is_stmt 0 view .LVU285
.LBE1355:
.LBB1356:
.LBI1356:
	.loc 18 132 19 is_stmt 1 view .LVU286
.LBB1357:
.LBB1358:
.LBI1358:
	.loc 19 74 5 view .LVU287
	.loc 19 74 5 is_stmt 0 view .LVU288
.LBE1358:
.LBE1357:
.LBE1356:
.LBE1353:
.LBE1365:
.LBE1367:
.LBE1371:
.LBE1373:
.LBE1375:
.LBE1387:
.LBE1404:
	.loc 1 130 9 view .LVU289
	movq	pthread_create@GOTPCREL(%rip), %rdx
	movq	%r12, %rsi
	movq	%rbp, %rdi
.LBB1405:
.LBB1388:
.LBB1376:
.LBB1374:
.LBB1372:
.LBB1368:
.LBB1366:
.LBB1361:
.LBB1360:
.LBB1359:
	.loc 18 133 42 view .LVU290
	movl	%ebx, 8(%rax)
.LVL84:
	.loc 18 133 42 view .LVU291
.LBE1359:
.LBE1360:
.LBE1361:
.LBB1362:
.LBI1362:
	.loc 18 195 7 is_stmt 1 view .LVU292
	.loc 18 195 7 is_stmt 0 view .LVU293
.LBE1362:
.LBB1363:
.LBI1363:
	.loc 19 74 5 is_stmt 1 view .LVU294
	.loc 19 74 5 is_stmt 0 view .LVU295
.LBE1363:
.LBB1364:
.LBI1347:
	.loc 18 132 19 is_stmt 1 view .LVU296
.LBB1350:
.LBB1349:
.LBI1349:
	.loc 19 74 5 view .LVU297
	.loc 19 74 5 is_stmt 0 view .LVU298
.LBE1349:
	.loc 18 133 42 view .LVU299
	movq	%r14, 16(%rax)
.LVL85:
	.loc 18 133 42 view .LVU300
.LBE1350:
.LBE1364:
.LBE1366:
.LBE1368:
.LBE1372:
.LBE1374:
.LBE1376:
.LBB1377:
.LBI1377:
	.file 20 "/usr/include/c++/9/bits/unique_ptr.h"
	.loc 20 211 2 is_stmt 1 view .LVU301
.LBB1378:
.LBI1378:
	.loc 20 147 7 view .LVU302
.LBB1379:
.LBB1380:
.LBI1380:
	.loc 18 918 12 view .LVU303
.LBB1381:
.LBI1381:
	.loc 18 206 17 view .LVU304
.LBB1382:
.LBI1382:
	.loc 18 339 17 view .LVU305
.LBB1383:
.LBI1383:
	.loc 18 76 17 view .LVU306
	.loc 18 76 17 is_stmt 0 view .LVU307
.LBE1383:
.LBE1382:
.LBB1384:
.LBI1384:
	.loc 18 122 17 is_stmt 1 view .LVU308
	.loc 18 122 17 is_stmt 0 view .LVU309
.LBE1384:
.LBE1381:
.LBE1380:
.LBB1385:
.LBI1385:
	.loc 20 153 18 is_stmt 1 view .LVU310
	.loc 20 153 18 is_stmt 0 view .LVU311
.LBE1385:
	.loc 20 147 47 view .LVU312
	movq	%rax, 16(%rsp)
.LVL86:
.LEHB3:
	.loc 20 147 47 view .LVU313
.LBE1379:
.LBE1378:
.LBE1377:
.LBE1388:
.LBE1405:
	.loc 1 130 9 view .LVU314
	call	_ZNSt6thread15_M_start_threadESt10unique_ptrINS_6_StateESt14default_deleteIS1_EEPFvvE@PLT
.LVL87:
.LEHE3:
.LBB1406:
.LBI1406:
	.loc 20 286 7 is_stmt 1 view .LVU315
.LBB1407:
.LBB1408:
.LBI1408:
	.loc 20 153 18 view .LVU316
	.loc 20 153 18 is_stmt 0 view .LVU317
.LBE1408:
	.loc 20 291 12 view .LVU318
	movq	16(%rsp), %rdi
	.loc 20 291 2 view .LVU319
	testq	%rdi, %rdi
	je	.L34
.LVL88:
.LBB1409:
.LBI1409:
	.loc 20 365 7 is_stmt 1 view .LVU320
	.loc 20 365 7 is_stmt 0 view .LVU321
.LBE1409:
.LBB1410:
.LBI1410:
	.loc 19 99 5 is_stmt 1 view .LVU322
	.loc 19 99 5 is_stmt 0 view .LVU323
.LBE1410:
.LBB1411:
.LBI1411:
	.loc 20 75 7 is_stmt 1 view .LVU324
.LBB1412:
	.loc 20 81 2 is_stmt 0 view .LVU325
	movq	(%rdi), %rax
	call	*8(%rax)
.LVL89:
.L34:
	.loc 20 81 2 view .LVU326
.LBE1412:
.LBE1411:
.LBE1407:
.LBE1406:
.LBE1425:
.LBE1460:
	.loc 3 58 27 view .LVU327
	movq	%rbp, 16(%rsp)
.LVL90:
.LBB1461:
.LBI1427:
	.loc 7 1200 7 is_stmt 1 view .LVU328
.LBB1454:
.LBI1428:
	.loc 6 109 7 view .LVU329
.LBB1450:
	.loc 6 112 20 is_stmt 0 view .LVU330
	movq	40(%rsp), %rsi
	.loc 6 112 2 view .LVU331
	cmpq	48(%rsp), %rsi
	jne	.L35
.LVL91:
.LBB1444:
.LBI1444:
	.loc 7 826 7 is_stmt 1 view .LVU332
.LBB1445:
.LBI1445:
	.loc 13 803 7 view .LVU333
	.loc 13 803 7 is_stmt 0 view .LVU334
.LBE1445:
.LBE1444:
	.loc 6 121 4 view .LVU335
	movq	%r12, %rdx
	movq	%r15, %rdi
.LEHB4:
	call	_ZNSt6vectorIPSt6threadSaIS1_EE17_M_realloc_insertIJS1_EEEvN9__gnu_cxx17__normal_iteratorIPS1_S3_EEDpOT_
.LVL92:
.LBB1446:
	.loc 7 1140 7 is_stmt 1 view .LVU336
.LBB1442:
	.loc 7 826 7 view .LVU337
.LBB1438:
	.loc 13 803 7 view .LVU338
	.loc 13 803 7 is_stmt 0 view .LVU339
.LBE1438:
.LBE1442:
.LBB1443:
	.loc 13 864 7 is_stmt 1 view .LVU340
.LBB1441:
	.loc 13 803 7 view .LVU341
	.loc 13 803 7 is_stmt 0 view .LVU342
.LBE1441:
.LBE1443:
.LBE1446:
.LBE1450:
.LBE1454:
.LBE1461:
	.loc 3 57 5 is_stmt 1 view .LVU343
	.loc 3 57 23 is_stmt 0 view .LVU344
	movq	g(%rip), %rax
	.loc 3 57 5 view .LVU345
	addl	$1, %ebx
.LVL93:
	.loc 3 57 19 is_stmt 1 view .LVU346
	cmpl	%ebx, 64(%rax)
	jg	.L41
.LVL94:
.L33:
	.loc 3 57 19 is_stmt 0 view .LVU347
.LBE1465:
	.loc 3 62 5 is_stmt 1 view .LVU348
.LBB1466:
.LBI1466:
	.loc 4 80 5 view .LVU349
.LBE1466:
	.loc 4 81 7 view .LVU350
.LBB1470:
.LBB1467:
.LBI1467:
	.loc 5 288 7 view .LVU351
.LBB1468:
.LBI1468:
	.loc 5 390 7 view .LVU352
.LBB1469:
	.loc 5 397 18 is_stmt 0 view .LVU353
	movb	$1, 68(%rax)
	mfence
.LVL95:
	.loc 5 397 18 view .LVU354
.LBE1469:
.LBE1468:
.LBE1467:
.LBE1470:
	.loc 3 63 5 is_stmt 1 view .LVU355
.LBB1471:
.LBI1471:
	.file 21 "/usr/include/c++/9/chrono"
	.loc 21 331 23 view .LVU356
.LBB1472:
	.loc 21 332 33 is_stmt 0 view .LVU357
	movslq	8(%rsp), %rbp
.LVL96:
	.loc 21 332 33 view .LVU358
.LBE1472:
.LBE1471:
.LBB1473:
.LBI1473:
	.loc 1 366 7 is_stmt 1 view .LVU359
.LBB1474:
	.loc 1 368 2 is_stmt 0 view .LVU360
	testq	%rbp, %rbp
	jle	.L45
.LVL97:
.LBB1475:
.LBI1475:
	.loc 21 191 7 is_stmt 1 view .LVU361
.LBB1476:
.LBB1477:
.LBI1477:
	.loc 21 137 4 view .LVU362
.LBB1478:
.LBB1479:
.LBI1479:
	.loc 21 331 23 view .LVU363
	.loc 21 331 23 is_stmt 0 view .LVU364
.LBE1479:
.LBE1478:
.LBE1477:
.LBE1476:
.LBE1475:
.LBB1480:
.LBI1480:
	.loc 21 463 7 is_stmt 1 view .LVU365
.LBB1481:
.LBB1482:
.LBI1482:
	.loc 21 331 23 view .LVU366
	.loc 21 331 23 is_stmt 0 view .LVU367
.LBE1482:
.LBE1481:
.LBE1480:
.LBB1483:
.LBI1483:
	.loc 21 191 7 is_stmt 1 view .LVU368
.LBB1484:
.LBB1485:
.LBI1485:
	.loc 21 162 4 view .LVU369
.LBB1486:
.LBB1487:
.LBI1487:
	.loc 21 331 23 view .LVU370
	.loc 21 331 23 is_stmt 0 view .LVU371
.LBE1487:
.LBE1486:
.LBE1485:
.LBE1484:
.LBE1483:
	.loc 1 373 19 view .LVU372
	movq	%rbp, 16(%rsp)
.LVL98:
	.loc 1 373 19 view .LVU373
	leaq	16(%rsp), %rbx
	movq	$0, 24(%rsp)
	jmp	.L46
	.p2align 4,,10
	.p2align 3
.L82:
	.loc 1 378 44 view .LVU374
	call	__errno_location@PLT
.LVL99:
	.loc 1 378 41 view .LVU375
	cmpl	$4, (%rax)
	jne	.L45
.L46:
	.loc 1 378 41 is_stmt 1 view .LVU376
	.loc 1 378 20 is_stmt 0 view .LVU377
	movq	%rbx, %rsi
	movq	%rbx, %rdi
	call	nanosleep@PLT
.LVL100:
	.loc 1 378 41 view .LVU378
	cmpl	$-1, %eax
	je	.L82
.LVL101:
.L45:
	.loc 1 378 41 view .LVU379
.LBE1474:
.LBE1473:
	.loc 3 64 5 is_stmt 1 view .LVU380
.LBB1488:
.LBI1488:
	.loc 4 80 5 view .LVU381
.LBE1488:
	.loc 4 81 7 view .LVU382
.LBB1492:
.LBB1489:
.LBI1489:
	.loc 5 288 7 view .LVU383
.LBB1490:
.LBI1490:
	.loc 5 390 7 view .LVU384
.LBB1491:
	.loc 5 397 18 is_stmt 0 view .LVU385
	movq	g(%rip), %rax
	movb	$1, 69(%rax)
.LVL102:
	.loc 5 397 18 view .LVU386
	mfence
.LVL103:
	.loc 5 397 18 view .LVU387
.LBE1491:
.LBE1490:
.LBE1489:
.LBE1492:
	.loc 3 67 5 is_stmt 1 view .LVU388
.LBB1493:
	.loc 3 67 19 view .LVU389
	.loc 3 67 23 is_stmt 0 view .LVU390
	movq	g(%rip), %rax
	.loc 3 67 19 view .LVU391
	cmpl	$0, 64(%rax)
	jle	.L43
	xorl	%ebx, %ebx
.LVL104:
	.p2align 4,,10
	.p2align 3
.L44:
	.loc 3 68 9 is_stmt 1 view .LVU392
.LBB1494:
.LBI1494:
	.loc 7 1040 7 view .LVU393
	.loc 7 1040 7 is_stmt 0 view .LVU394
.LBE1494:
	.loc 3 68 25 view .LVU395
	movq	32(%rsp), %rax
	movq	(%rax,%rbx,8), %rdi
	call	_ZNSt6thread4joinEv@PLT
.LVL105:
	.loc 3 69 9 is_stmt 1 view .LVU396
.LBB1495:
.LBI1495:
	.loc 7 1040 7 view .LVU397
	.loc 7 1040 7 is_stmt 0 view .LVU398
.LBE1495:
	.loc 3 69 25 view .LVU399
	movq	32(%rsp), %rax
	movq	(%rax,%rbx,8), %rdi
	.loc 3 69 26 view .LVU400
	testq	%rdi, %rdi
	je	.L49
.LVL106:
.LBB1496:
.LBI1496:
	.loc 1 136 5 is_stmt 1 view .LVU401
.LBB1497:
	.loc 1 138 7 view .LVU402
.LBB1498:
.LBI1498:
	.loc 1 162 5 view .LVU403
.LBE1498:
.LBE1497:
.LBE1496:
.LBE1493:
	.loc 1 163 7 view .LVU404
.LBB1507:
.LBB1504:
.LBB1501:
.LBB1500:
.LBB1499:
.LBI1499:
	.loc 1 82 7 view .LVU405
	.loc 1 82 7 is_stmt 0 view .LVU406
.LBE1499:
.LBE1500:
.LBE1501:
.LBE1504:
.LBE1507:
	.loc 1 282 5 is_stmt 1 view .LVU407
.LBB1508:
.LBB1505:
.LBB1502:
	.loc 1 138 7 is_stmt 0 view .LVU408
	cmpq	$0, (%rdi)
	jne	.L83
.LVL107:
	.loc 1 138 7 view .LVU409
.LBE1502:
.LBE1505:
	.loc 3 69 25 view .LVU410
	movl	$8, %esi
	call	_ZdlPvm@PLT
.LVL108:
.L49:
	.loc 3 67 5 is_stmt 1 discriminator 2 view .LVU411
	.loc 3 67 19 discriminator 2 view .LVU412
	.loc 3 67 23 is_stmt 0 discriminator 2 view .LVU413
	movq	g(%rip), %rcx
	addq	$1, %rbx
.LVL109:
	.loc 3 67 23 discriminator 2 view .LVU414
	movl	64(%rcx), %eax
	.loc 3 67 19 discriminator 2 view .LVU415
	cmpl	%ebx, %eax
	jg	.L44
.LVL110:
	.loc 3 67 19 discriminator 2 view .LVU416
.LBE1508:
.LBB1509:
	.loc 3 74 19 is_stmt 1 view .LVU417
	testl	%eax, %eax
	jle	.L43
	xorl	%edi, %edi
.LBE1509:
	.loc 3 73 13 is_stmt 0 view .LVU418
	xorl	%ebx, %ebx
.LVL111:
	.p2align 4,,10
	.p2align 3
.L48:
.LBB1516:
	.loc 3 75 9 is_stmt 1 discriminator 2 view .LVU419
.LBB1510:
.LBI1510:
	.loc 5 281 7 discriminator 2 view .LVU420
.LBB1511:
.LBI1511:
	.loc 5 413 7 discriminator 2 view .LVU421
.LBB1512:
	.loc 5 419 24 is_stmt 0 discriminator 2 view .LVU422
	movq	%rdi, %rax
	addq	$1, %rdi
.LVL112:
	.loc 5 419 24 discriminator 2 view .LVU423
	salq	$6, %rax
	addq	%rax, %rcx
	movq	72(%rcx), %rax
.LBE1512:
.LBE1511:
.LBE1510:
	.loc 3 75 13 discriminator 2 view .LVU424
	addq	%rax, %rbx
.LVL113:
.LBB1515:
.LBB1514:
.LBB1513:
	.loc 5 419 24 discriminator 2 view .LVU425
.LVL114:
	.loc 5 419 24 discriminator 2 view .LVU426
.LBE1513:
.LBE1514:
.LBE1515:
	.loc 3 74 5 is_stmt 1 discriminator 2 view .LVU427
	.loc 3 74 19 discriminator 2 view .LVU428
	.loc 3 74 23 is_stmt 0 discriminator 2 view .LVU429
	movq	g(%rip), %rcx
	.loc 3 74 19 discriminator 2 view .LVU430
	cmpl	%edi, 64(%rcx)
	jg	.L48
.LVL115:
.L47:
	.loc 3 74 19 discriminator 2 view .LVU431
.LBE1516:
	.loc 3 77 5 is_stmt 1 view .LVU432
.LBB1517:
.LBI1517:
	.loc 14 565 5 view .LVU433
	.loc 14 565 5 is_stmt 0 view .LVU434
.LBE1517:
	.loc 15 339 2 is_stmt 1 view .LVU435
	.loc 15 342 2 view .LVU436
.LBB1519:
.LBB1518:
	.loc 14 570 18 is_stmt 0 view .LVU437
	movl	$35, %edx
	leaq	.LC3(%rip), %rsi
	leaq	_ZSt4cout(%rip), %rdi
	call	_ZSt16__ostream_insertIcSt11char_traitsIcEERSt13basic_ostreamIT_T0_ES6_PKS3_l@PLT
.LVL116:
	.loc 14 570 18 view .LVU438
.LBE1518:
.LBE1519:
.LBB1520:
.LBI1520:
	.loc 14 166 7 is_stmt 1 view .LVU439
.LBE1520:
	.loc 3 77 69 is_stmt 0 view .LVU440
	movq	%rbx, %rax
.LBB1523:
.LBB1521:
	.loc 14 167 29 view .LVU441
	leaq	_ZSt4cout(%rip), %rdi
.LBE1521:
.LBE1523:
	.loc 3 77 69 view .LVU442
	cqto
	idivq	%rbp
.LVL117:
	.loc 3 77 69 view .LVU443
	movq	%rax, %rsi
.LBB1524:
.LBB1522:
	.loc 14 167 29 view .LVU444
	call	_ZNSo9_M_insertIlEERSoT_@PLT
.LVL118:
	.loc 14 167 29 view .LVU445
	movq	%rax, %rdi
.LVL119:
	.loc 14 167 29 view .LVU446
.LBE1522:
.LBE1524:
.LBB1525:
.LBI1525:
	.loc 14 108 7 is_stmt 1 view .LVU447
.LBB1526:
	.loc 14 113 13 is_stmt 0 view .LVU448
	call	_ZSt4endlIcSt11char_traitsIcEERSt13basic_ostreamIT_T0_ES6_@PLT
.LVL120:
.LEHE4:
	.loc 14 113 13 view .LVU449
.LBE1526:
.LBE1525:
	.loc 3 79 5 is_stmt 1 view .LVU450
	.loc 3 79 12 is_stmt 0 view .LVU451
	movq	g(%rip), %rdi
	.loc 3 79 13 view .LVU452
	testq	%rdi, %rdi
	je	.L52
	.loc 3 79 12 discriminator 1 view .LVU453
	movl	$16456, %esi
	call	_ZdlPvm@PLT
.LVL121:
.L52:
	.loc 3 80 5 is_stmt 1 view .LVU454
.LBB1527:
.LBI1527:
	.loc 7 675 7 view .LVU455
.LBB1528:
.LBB1529:
.LBI1529:
	.loc 7 273 7 view .LVU456
	.loc 7 273 7 is_stmt 0 view .LVU457
.LBE1529:
	.loc 7 677 15 view .LVU458
	movq	32(%rsp), %rdi
.LBB1530:
.LBI1530:
	.file 22 "/usr/include/c++/9/bits/stl_construct.h"
	.loc 22 203 5 is_stmt 1 view .LVU459
.LVL122:
	.loc 22 203 5 is_stmt 0 view .LVU460
.LBE1530:
.LBB1531:
.LBI1531:
	.loc 7 330 7 is_stmt 1 view .LVU461
.LBB1532:
.LBI1532:
	.loc 7 347 7 view .LVU462
	.loc 7 347 7 is_stmt 0 view .LVU463
.LBE1532:
.LBE1531:
.LBE1528:
.LBE1527:
	.loc 3 80 12 view .LVU464
	xorl	%r12d, %r12d
.LBB1541:
.LBB1540:
.LBB1539:
.LBB1538:
.LBB1533:
	.loc 7 350 2 view .LVU465
	testq	%rdi, %rdi
	je	.L30
.LVL123:
.LBB1534:
.LBI1534:
	.loc 10 468 7 is_stmt 1 view .LVU466
.LBB1535:
.LBB1536:
.LBI1536:
	.loc 9 119 7 view .LVU467
.LBB1537:
	.loc 9 128 19 is_stmt 0 view .LVU468
	call	_ZdlPv@PLT
.LVL124:
	.loc 9 128 19 view .LVU469
.LBE1537:
.LBE1536:
	.loc 10 469 35 view .LVU470
	jmp	.L30
.LVL125:
.L43:
	.loc 10 469 35 view .LVU471
.LBE1535:
.LBE1534:
.LBE1533:
.LBE1538:
.LBE1539:
.LBE1540:
.LBE1541:
	.loc 3 73 13 view .LVU472
	xorl	%ebx, %ebx
	jmp	.L47
.LVL126:
.L83:
.LBB1542:
.LBB1506:
.LBB1503:
	.loc 1 139 2 is_stmt 1 view .LVU473
	.loc 1 139 16 is_stmt 0 view .LVU474
	call	_ZSt9terminatev@PLT
.LVL127:
.L81:
	.loc 1 139 16 view .LVU475
.LBE1503:
.LBE1506:
.LBE1542:
	.loc 3 81 1 view .LVU476
	call	__stack_chk_fail@PLT
.LVL128:
.L58:
	.loc 3 81 1 view .LVU477
	endbr64
	movq	%rax, %rbx
	jmp	.L53
.LVL129:
.L57:
	.loc 3 81 1 view .LVU478
	endbr64
	movq	%rax, %rbx
.LVL130:
	.loc 3 81 1 view .LVU479
	jmp	.L39
.LVL131:
.L59:
	.loc 3 81 1 view .LVU480
	endbr64
	movq	%rax, %rbx
.LVL132:
	.loc 3 81 1 view .LVU481
	jmp	.L37
	.globl	__gxx_personality_v0
	.section	.gcc_except_table,"a",@progbits
.LLSDA3801:
	.byte	0xff
	.byte	0xff
	.byte	0x1
	.uleb128 .LLSDACSE3801-.LLSDACSB3801
.LLSDACSB3801:
	.uleb128 .LEHB0-.LFB3801
	.uleb128 .LEHE0-.LEHB0
	.uleb128 0
	.uleb128 0
	.uleb128 .LEHB1-.LFB3801
	.uleb128 .LEHE1-.LEHB1
	.uleb128 .L58-.LFB3801
	.uleb128 0
	.uleb128 .LEHB2-.LFB3801
	.uleb128 .LEHE2-.LEHB2
	.uleb128 .L57-.LFB3801
	.uleb128 0
	.uleb128 .LEHB3-.LFB3801
	.uleb128 .LEHE3-.LEHB3
	.uleb128 .L59-.LFB3801
	.uleb128 0
	.uleb128 .LEHB4-.LFB3801
	.uleb128 .LEHE4-.LEHB4
	.uleb128 .L58-.LFB3801
	.uleb128 0
.LLSDACSE3801:
	.section	.text.startup
	.cfi_endproc
	.section	.text.unlikely
	.cfi_startproc
	.cfi_personality 0x9b,DW.ref.__gxx_personality_v0
	.cfi_lsda 0x1b,.LLSDAC3801
	.type	main.cold, @function
main.cold:
.LFSB3801:
.L37:
	.cfi_def_cfa_offset 128
	.cfi_offset 3, -56
	.cfi_offset 6, -48
	.cfi_offset 12, -40
	.cfi_offset 13, -32
	.cfi_offset 14, -24
	.cfi_offset 15, -16
.LVL133:
.LBB1543:
.LBB1462:
.LBB1426:
.LBB1413:
	.loc 20 286 7 is_stmt 1 view -0
.LBB1414:
.LBB1415:
.LBI1415:
	.loc 20 153 18 view .LVU483
	.loc 20 153 18 is_stmt 0 view .LVU484
.LBE1415:
	.loc 20 291 12 view .LVU485
	movq	16(%rsp), %rdi
	.loc 20 291 2 view .LVU486
	testq	%rdi, %rdi
	je	.L39
.LVL134:
.LBB1416:
.LBI1416:
	.loc 20 365 7 is_stmt 1 view .LVU487
	.loc 20 365 7 is_stmt 0 view .LVU488
.LBE1416:
.LBB1417:
.LBI1417:
	.loc 19 99 5 is_stmt 1 view .LVU489
	.loc 19 99 5 is_stmt 0 view .LVU490
.LBE1417:
.LBB1418:
.LBI1418:
	.loc 20 75 7 is_stmt 1 view .LVU491
.LBB1419:
	.loc 20 81 2 is_stmt 0 view .LVU492
	movq	(%rdi), %rax
	call	*8(%rax)
.LVL135:
.L39:
	.loc 20 81 2 view .LVU493
.LBE1419:
.LBE1418:
.LBE1414:
.LBE1413:
.LBE1426:
.LBE1462:
	.loc 3 58 51 discriminator 2 view .LVU494
	movl	$8, %esi
	movq	%rbp, %rdi
	call	_ZdlPvm@PLT
.LVL136:
.L53:
	.loc 3 58 51 discriminator 2 view .LVU495
.LBE1543:
.LBB1544:
.LBI1544:
	.loc 7 675 7 is_stmt 1 view .LVU496
.LBB1545:
.LBB1546:
.LBI1546:
	.loc 7 273 7 view .LVU497
	.loc 7 273 7 is_stmt 0 view .LVU498
.LBE1546:
	.loc 7 677 15 view .LVU499
	movq	32(%rsp), %rdi
.LBB1547:
.LBI1547:
	.loc 22 203 5 is_stmt 1 view .LVU500
.LVL137:
	.loc 22 203 5 is_stmt 0 view .LVU501
.LBE1547:
.LBB1548:
.LBI1548:
	.loc 7 330 7 is_stmt 1 view .LVU502
.LBB1549:
.LBI1549:
	.loc 7 347 7 view .LVU503
.LBB1550:
	.loc 7 350 2 is_stmt 0 view .LVU504
	testq	%rdi, %rdi
	je	.L54
.LVL138:
.LBB1551:
.LBI1551:
	.loc 10 468 7 is_stmt 1 view .LVU505
.LBB1552:
.LBB1553:
.LBI1553:
	.loc 9 119 7 view .LVU506
.LBB1554:
	.loc 9 128 19 is_stmt 0 view .LVU507
	call	_ZdlPv@PLT
.LVL139:
.L54:
	.loc 9 128 19 view .LVU508
.LBE1554:
.LBE1553:
.LBE1552:
.LBE1551:
.LBE1550:
.LBE1549:
.LBB1555:
.LBI1555:
	.loc 7 125 14 is_stmt 1 view .LVU509
.LBB1556:
.LBI1556:
	.loc 17 152 7 view .LVU510
.LBB1557:
.LBI1557:
	.loc 9 89 7 view .LVU511
	.loc 9 89 7 is_stmt 0 view .LVU512
	movq	%rbx, %rdi
.LEHB5:
	call	_Unwind_Resume@PLT
.LVL140:
.LEHE5:
.LBE1557:
.LBE1556:
.LBE1555:
.LBE1548:
.LBE1545:
.LBE1544:
	.cfi_endproc
.LFE3801:
	.section	.gcc_except_table
.LLSDAC3801:
	.byte	0xff
	.byte	0xff
	.byte	0x1
	.uleb128 .LLSDACSEC3801-.LLSDACSBC3801
.LLSDACSBC3801:
	.uleb128 .LEHB5-.LCOLDB4
	.uleb128 .LEHE5-.LEHB5
	.uleb128 0
	.uleb128 0
.LLSDACSEC3801:
	.section	.text.unlikely
	.section	.text.startup
	.size	main, .-main
	.section	.text.unlikely
	.size	main.cold, .-main.cold
.LCOLDE4:
	.section	.text.startup
.LHOTE4:
	.p2align 4
	.type	_GLOBAL__sub_I_g, @function
_GLOBAL__sub_I_g:
.LFB4649:
	.loc 3 81 1 is_stmt 1 view -0
	.cfi_startproc
	endbr64
.LVL141:
.LBB1558:
.LBI1558:
	.loc 3 81 1 view .LVU514
.LBE1558:
	subq	$8, %rsp
	.cfi_def_cfa_offset 16
.LBB1561:
.LBB1559:
	.file 23 "/usr/include/c++/9/iostream"
	.loc 23 74 25 is_stmt 0 view .LVU515
	leaq	_ZStL8__ioinit(%rip), %rdi
	call	_ZNSt8ios_base4InitC1Ev@PLT
.LVL142:
	movq	_ZNSt8ios_base4InitD1Ev@GOTPCREL(%rip), %rdi
.LBE1559:
.LBE1561:
	.loc 3 81 1 view .LVU516
	addq	$8, %rsp
	.cfi_def_cfa_offset 8
.LBB1562:
.LBB1560:
	.loc 23 74 25 view .LVU517
	leaq	__dso_handle(%rip), %rdx
	leaq	_ZStL8__ioinit(%rip), %rsi
	jmp	__cxa_atexit@PLT
.LVL143:
.LBE1560:
.LBE1562:
	.cfi_endproc
.LFE4649:
	.size	_GLOBAL__sub_I_g, .-_GLOBAL__sub_I_g
	.section	.init_array,"aw"
	.align 8
	.quad	_GLOBAL__sub_I_g
	.weak	_ZTSNSt6thread11_State_implINS_8_InvokerISt5tupleIJPFviEiEEEEEE
	.section	.rodata._ZTSNSt6thread11_State_implINS_8_InvokerISt5tupleIJPFviEiEEEEEE,"aG",@progbits,_ZTSNSt6thread11_State_implINS_8_InvokerISt5tupleIJPFviEiEEEEEE,comdat
	.align 32
	.type	_ZTSNSt6thread11_State_implINS_8_InvokerISt5tupleIJPFviEiEEEEEE, @object
	.size	_ZTSNSt6thread11_State_implINS_8_InvokerISt5tupleIJPFviEiEEEEEE, 60
_ZTSNSt6thread11_State_implINS_8_InvokerISt5tupleIJPFviEiEEEEEE:
	.string	"NSt6thread11_State_implINS_8_InvokerISt5tupleIJPFviEiEEEEEE"
	.weak	_ZTINSt6thread11_State_implINS_8_InvokerISt5tupleIJPFviEiEEEEEE
	.section	.data.rel.ro._ZTINSt6thread11_State_implINS_8_InvokerISt5tupleIJPFviEiEEEEEE,"awG",@progbits,_ZTINSt6thread11_State_implINS_8_InvokerISt5tupleIJPFviEiEEEEEE,comdat
	.align 8
	.type	_ZTINSt6thread11_State_implINS_8_InvokerISt5tupleIJPFviEiEEEEEE, @object
	.size	_ZTINSt6thread11_State_implINS_8_InvokerISt5tupleIJPFviEiEEEEEE, 24
_ZTINSt6thread11_State_implINS_8_InvokerISt5tupleIJPFviEiEEEEEE:
	.quad	_ZTVN10__cxxabiv120__si_class_type_infoE+16
	.quad	_ZTSNSt6thread11_State_implINS_8_InvokerISt5tupleIJPFviEiEEEEEE
	.quad	_ZTINSt6thread6_StateE
	.weak	_ZTVNSt6thread11_State_implINS_8_InvokerISt5tupleIJPFviEiEEEEEE
	.section	.data.rel.ro.local._ZTVNSt6thread11_State_implINS_8_InvokerISt5tupleIJPFviEiEEEEEE,"awG",@progbits,_ZTVNSt6thread11_State_implINS_8_InvokerISt5tupleIJPFviEiEEEEEE,comdat
	.align 8
	.type	_ZTVNSt6thread11_State_implINS_8_InvokerISt5tupleIJPFviEiEEEEEE, @object
	.size	_ZTVNSt6thread11_State_implINS_8_InvokerISt5tupleIJPFviEiEEEEEE, 40
_ZTVNSt6thread11_State_implINS_8_InvokerISt5tupleIJPFviEiEEEEEE:
	.quad	0
	.quad	_ZTINSt6thread11_State_implINS_8_InvokerISt5tupleIJPFviEiEEEEEE
	.quad	_ZNSt6thread11_State_implINS_8_InvokerISt5tupleIJPFviEiEEEEED1Ev
	.quad	_ZNSt6thread11_State_implINS_8_InvokerISt5tupleIJPFviEiEEEEED0Ev
	.quad	_ZNSt6thread11_State_implINS_8_InvokerISt5tupleIJPFviEiEEEEE6_M_runEv
	.globl	g
	.bss
	.align 8
	.type	g, @object
	.size	g, 8
g:
	.zero	8
	.local	_ZStL8__ioinit
	.comm	_ZStL8__ioinit,1,1
	.text
.Letext0:
	.section	.text.unlikely
.Letext_cold0:
	.file 24 "/usr/include/c++/9/cwchar"
	.file 25 "/usr/include/c++/9/type_traits"
	.file 26 "/usr/include/x86_64-linux-gnu/c++/9/bits/c++config.h"
	.file 27 "/usr/include/c++/9/bits/exception_ptr.h"
	.file 28 "/usr/include/c++/9/bits/stl_pair.h"
	.file 29 "/usr/include/c++/9/bits/stl_iterator_base_types.h"
	.file 30 "/usr/include/c++/9/debug/debug.h"
	.file 31 "/usr/include/c++/9/cstdint"
	.file 32 "/usr/include/c++/9/clocale"
	.file 33 "/usr/include/c++/9/cstdlib"
	.file 34 "/usr/include/c++/9/bits/algorithmfwd.h"
	.file 35 "/usr/include/c++/9/limits"
	.file 36 "/usr/include/c++/9/string_view"
	.file 37 "/usr/include/c++/9/bits/basic_string.h"
	.file 38 "/usr/include/c++/9/cstdio"
	.file 39 "/usr/include/c++/9/bits/ios_base.h"
	.file 40 "/usr/include/c++/9/cwctype"
	.file 41 "/usr/include/c++/9/bits/locale_facets.h"
	.file 42 "/usr/include/c++/9/istream"
	.file 43 "/usr/include/c++/9/iosfwd"
	.file 44 "/usr/include/c++/9/ctime"
	.file 45 "/usr/include/c++/9/ratio"
	.file 46 "/usr/include/c++/9/utility"
	.file 47 "/usr/include/c++/9/bits/uses_allocator.h"
	.file 48 "/usr/include/c++/9/bits/shared_ptr_base.h"
	.file 49 "/usr/include/c++/9/bits/basic_ios.h"
	.file 50 "/usr/include/c++/9/bits/ostream.tcc"
	.file 51 "/usr/include/c++/9/bits/functexcept.h"
	.file 52 "/usr/include/c++/9/exception"
	.file 53 "/usr/include/c++/9/bits/ostream_insert.h"
	.file 54 "/usr/include/c++/9/bits/predefined_ops.h"
	.file 55 "/usr/include/c++/9/ext/numeric_traits.h"
	.file 56 "/usr/include/c++/9/ext/concurrence.h"
	.file 57 "/usr/include/c++/9/ext/alloc_traits.h"
	.file 58 "/usr/lib/gcc/x86_64-linux-gnu/9/include/stddef.h"
	.file 59 "<built-in>"
	.file 60 "/usr/include/x86_64-linux-gnu/bits/types/wint_t.h"
	.file 61 "/usr/include/x86_64-linux-gnu/bits/types/__mbstate_t.h"
	.file 62 "/usr/include/x86_64-linux-gnu/bits/types/mbstate_t.h"
	.file 63 "/usr/include/x86_64-linux-gnu/bits/types/__FILE.h"
	.file 64 "/usr/include/x86_64-linux-gnu/bits/types/struct_FILE.h"
	.file 65 "/usr/include/x86_64-linux-gnu/bits/types/FILE.h"
	.file 66 "/usr/include/wchar.h"
	.file 67 "/usr/include/x86_64-linux-gnu/bits/wchar2.h"
	.file 68 "/usr/include/x86_64-linux-gnu/bits/types/struct_tm.h"
	.file 69 "/usr/include/c++/9/bits/ptr_traits.h"
	.file 70 "/usr/include/x86_64-linux-gnu/bits/types.h"
	.file 71 "/usr/include/x86_64-linux-gnu/bits/stdint-intn.h"
	.file 72 "/usr/include/x86_64-linux-gnu/bits/stdint-uintn.h"
	.file 73 "/usr/include/stdint.h"
	.file 74 "/usr/include/locale.h"
	.file 75 "/usr/include/x86_64-linux-gnu/bits/types/time_t.h"
	.file 76 "/usr/include/x86_64-linux-gnu/bits/types/struct_timespec.h"
	.file 77 "/usr/include/x86_64-linux-gnu/bits/types/clock_t.h"
	.file 78 "/usr/include/time.h"
	.file 79 "/usr/include/x86_64-linux-gnu/bits/pthreadtypes.h"
	.file 80 "/usr/include/x86_64-linux-gnu/c++/9/bits/gthr-default.h"
	.file 81 "/usr/include/x86_64-linux-gnu/c++/9/bits/atomic_word.h"
	.file 82 "/usr/include/x86_64-linux-gnu/bits/stdlib-float.h"
	.file 83 "/usr/include/x86_64-linux-gnu/bits/stdlib-bsearch.h"
	.file 84 "/usr/include/x86_64-linux-gnu/bits/stdlib.h"
	.file 85 "/usr/include/x86_64-linux-gnu/bits/types/__fpos_t.h"
	.file 86 "/usr/include/stdio.h"
	.file 87 "/usr/include/x86_64-linux-gnu/bits/stdio2.h"
	.file 88 "/usr/include/x86_64-linux-gnu/bits/stdio.h"
	.file 89 "/usr/include/errno.h"
	.file 90 "/usr/include/x86_64-linux-gnu/bits/wctype-wchar.h"
	.file 91 "/usr/include/wctype.h"
	.file 92 "/usr/include/c++/9/pstl/execution_defs.h"